target datalayout = "e-m:e-p270:32:32-p271:32:32-p272:64:64-i64:64-i128:128-f80:128-n8:16:32:64-S128"
target triple = "x86_64-pc-linux-gnu"

%struct.action = type { ptr, i32, %union.anon, ptr, ptr, ptr }
%union.anon = type { ptr }
%struct.rule = type { ptr, ptr, i32, i32, i32, ptr, ptr, i32, ptr, ptr, ptr, ptr, i32, i32, i32, i32, i32, i32, i32, ptr, ptr }
%struct.symbol = type { ptr, i32, i32, ptr, ptr, i32, i32, ptr, i32, i32, ptr, i32, ptr, i32, i32, i32, ptr }
%struct.state = type { ptr, ptr, i32, ptr, i32, i32, i32, i32, i32, ptr, i32 }

@showPrecedenceConflict = internal global i32 0, align 4
@.str.95 = private unnamed_addr constant [22 x i8] c"%*s shift        %-7d\00", align 1
@.str.96 = private unnamed_addr constant [22 x i8] c"%*s reduce       %-7d\00", align 1
@.str.97 = private unnamed_addr constant [22 x i8] c"%*s shift-reduce %-7d\00", align 1
@.str.98 = private unnamed_addr constant [11 x i8] c"%*s accept\00", align 1
@.str.99 = private unnamed_addr constant [10 x i8] c"%*s error\00", align 1
@.str.100 = private unnamed_addr constant [45 x i8] c"%*s reduce       %-7d ** Parsing conflict **\00", align 1
@.str.101 = private unnamed_addr constant [45 x i8] c"%*s shift        %-7d ** Parsing conflict **\00", align 1
@.str.102 = private unnamed_addr constant [47 x i8] c"%*s shift        %-7d -- dropped by precedence\00", align 1
@.str.103 = private unnamed_addr constant [41 x i8] c"%*s reduce %-7d -- dropped by precedence\00", align 1
@.str.104 = private unnamed_addr constant [23 x i8] c"  /* because %s==%s */\00", align 1

; Function Attrs: null_pointer_is_valid sspstrong uwtable
define hidden i32 @PrintAction(ptr noundef %0, ptr noundef %1, i32 noundef %2) #0 {
  %4 = alloca ptr, align 8
  %5 = alloca ptr, align 8
  %6 = alloca i32, align 4
  %7 = alloca i32, align 4
  %8 = alloca ptr, align 8
  %9 = alloca ptr, align 8
  %10 = alloca ptr, align 8
  store ptr %0, ptr %4, align 8
  store ptr %1, ptr %5, align 8
  store i32 %2, ptr %6, align 4
  call void @llvm.lifetime.start.p0(i64 4, ptr %7) #18
  store i32 1, ptr %7, align 4
  %11 = load ptr, ptr %4, align 8
  %12 = getelementptr inbounds nuw %struct.action, ptr %11, i32 0, i32 1
  %13 = load i32, ptr %12, align 8
  switch i32 %13, label %148 [
    i32 0, label %14
    i32 2, label %29
    i32 10, label %46
    i32 1, label %63
    i32 3, label %72
    i32 5, label %81
    i32 6, label %81
    i32 4, label %95
    i32 7, label %109
    i32 8, label %128
    i32 9, label %147
  ]

14:                                               ; preds = %3
  call void @llvm.lifetime.start.p0(i64 8, ptr %8) #18
  %15 = load ptr, ptr %4, align 8
  %16 = getelementptr inbounds nuw %struct.action, ptr %15, i32 0, i32 2
  %17 = load ptr, ptr %16, align 8
  store ptr %17, ptr %8, align 8
  %18 = load ptr, ptr %5, align 8
  %19 = load i32, ptr %6, align 4
  %20 = load ptr, ptr %4, align 8
  %21 = getelementptr inbounds nuw %struct.action, ptr %20, i32 0, i32 0
  %22 = load ptr, ptr %21, align 8
  %23 = getelementptr inbounds nuw %struct.symbol, ptr %22, i32 0, i32 0
  %24 = load ptr, ptr %23, align 8
  %25 = load ptr, ptr %8, align 8
  %26 = getelementptr inbounds nuw %struct.state, ptr %25, i32 0, i32 2
  %27 = load i32, ptr %26, align 8
  %28 = call i32 (ptr, i32, ptr, ...) @__fprintf_chk(ptr noundef %18, i32 noundef 2, ptr noundef @.str.95, i32 noundef %19, ptr noundef %24, i32 noundef %27)
  call void @llvm.lifetime.end.p0(i64 8, ptr %8) #18
  br label %148

29:                                               ; preds = %3
  call void @llvm.lifetime.start.p0(i64 8, ptr %9) #18
  %30 = load ptr, ptr %4, align 8
  %31 = getelementptr inbounds nuw %struct.action, ptr %30, i32 0, i32 2
  %32 = load ptr, ptr %31, align 8
  store ptr %32, ptr %9, align 8
  %33 = load ptr, ptr %5, align 8
  %34 = load i32, ptr %6, align 4
  %35 = load ptr, ptr %4, align 8
  %36 = getelementptr inbounds nuw %struct.action, ptr %35, i32 0, i32 0
  %37 = load ptr, ptr %36, align 8
  %38 = getelementptr inbounds nuw %struct.symbol, ptr %37, i32 0, i32 0
  %39 = load ptr, ptr %38, align 8
  %40 = load ptr, ptr %9, align 8
  %41 = getelementptr inbounds nuw %struct.rule, ptr %40, i32 0, i32 13
  %42 = load i32, ptr %41, align 4
  %43 = call i32 (ptr, i32, ptr, ...) @__fprintf_chk(ptr noundef %33, i32 noundef 2, ptr noundef @.str.96, i32 noundef %34, ptr noundef %39, i32 noundef %42)
  %44 = load ptr, ptr %5, align 8
  %45 = load ptr, ptr %9, align 8
  call void @RulePrint(ptr noundef %44, ptr noundef %45, i32 noundef -1)
  call void @llvm.lifetime.end.p0(i64 8, ptr %9) #18
  br label %148

46:                                               ; preds = %3
  call void @llvm.lifetime.start.p0(i64 8, ptr %10) #18
  %47 = load ptr, ptr %4, align 8
  %48 = getelementptr inbounds nuw %struct.action, ptr %47, i32 0, i32 2
  %49 = load ptr, ptr %48, align 8
  store ptr %49, ptr %10, align 8
  %50 = load ptr, ptr %5, align 8
  %51 = load i32, ptr %6, align 4
  %52 = load ptr, ptr %4, align 8
  %53 = getelementptr inbounds nuw %struct.action, ptr %52, i32 0, i32 0
  %54 = load ptr, ptr %53, align 8
  %55 = getelementptr inbounds nuw %struct.symbol, ptr %54, i32 0, i32 0
  %56 = load ptr, ptr %55, align 8
  %57 = load ptr, ptr %10, align 8
  %58 = getelementptr inbounds nuw %struct.rule, ptr %57, i32 0, i32 13
  %59 = load i32, ptr %58, align 4
  %60 = call i32 (ptr, i32, ptr, ...) @__fprintf_chk(ptr noundef %50, i32 noundef 2, ptr noundef @.str.97, i32 noundef %51, ptr noundef %56, i32 noundef %59)
  %61 = load ptr, ptr %5, align 8
  %62 = load ptr, ptr %10, align 8
  call void @RulePrint(ptr noundef %61, ptr noundef %62, i32 noundef -1)
  call void @llvm.lifetime.end.p0(i64 8, ptr %10) #18
  br label %148

63:                                               ; preds = %3
  %64 = load ptr, ptr %5, align 8
  %65 = load i32, ptr %6, align 4
  %66 = load ptr, ptr %4, align 8
  %67 = getelementptr inbounds nuw %struct.action, ptr %66, i32 0, i32 0
  %68 = load ptr, ptr %67, align 8
  %69 = getelementptr inbounds nuw %struct.symbol, ptr %68, i32 0, i32 0
  %70 = load ptr, ptr %69, align 8
  %71 = call i32 (ptr, i32, ptr, ...) @__fprintf_chk(ptr noundef %64, i32 noundef 2, ptr noundef @.str.98, i32 noundef %65, ptr noundef %70)
  br label %148

72:                                               ; preds = %3
  %73 = load ptr, ptr %5, align 8
  %74 = load i32, ptr %6, align 4
  %75 = load ptr, ptr %4, align 8
  %76 = getelementptr inbounds nuw %struct.action, ptr %75, i32 0, i32 0
  %77 = load ptr, ptr %76, align 8
  %78 = getelementptr inbounds nuw %struct.symbol, ptr %77, i32 0, i32 0
  %79 = load ptr, ptr %78, align 8
  %80 = call i32 (ptr, i32, ptr, ...) @__fprintf_chk(ptr noundef %73, i32 noundef 2, ptr noundef @.str.99, i32 noundef %74, ptr noundef %79)
  br label %148

81:                                               ; preds = %3, %3
  %82 = load ptr, ptr %5, align 8
  %83 = load i32, ptr %6, align 4
  %84 = load ptr, ptr %4, align 8
  %85 = getelementptr inbounds nuw %struct.action, ptr %84, i32 0, i32 0
  %86 = load ptr, ptr %85, align 8
  %87 = getelementptr inbounds nuw %struct.symbol, ptr %86, i32 0, i32 0
  %88 = load ptr, ptr %87, align 8
  %89 = load ptr, ptr %4, align 8
  %90 = getelementptr inbounds nuw %struct.action, ptr %89, i32 0, i32 2
  %91 = load ptr, ptr %90, align 8
  %92 = getelementptr inbounds nuw %struct.rule, ptr %91, i32 0, i32 13
  %93 = load i32, ptr %92, align 4
  %94 = call i32 (ptr, i32, ptr, ...) @__fprintf_chk(ptr noundef %82, i32 noundef 2, ptr noundef @.str.100, i32 noundef %83, ptr noundef %88, i32 noundef %93)
  br label %148

95:                                               ; preds = %3
  %96 = load ptr, ptr %5, align 8
  %97 = load i32, ptr %6, align 4
  %98 = load ptr, ptr %4, align 8
  %99 = getelementptr inbounds nuw %struct.action, ptr %98, i32 0, i32 0
  %100 = load ptr, ptr %99, align 8
  %101 = getelementptr inbounds nuw %struct.symbol, ptr %100, i32 0, i32 0
  %102 = load ptr, ptr %101, align 8
  %103 = load ptr, ptr %4, align 8
  %104 = getelementptr inbounds nuw %struct.action, ptr %103, i32 0, i32 2
  %105 = load ptr, ptr %104, align 8
  %106 = getelementptr inbounds nuw %struct.state, ptr %105, i32 0, i32 2
  %107 = load i32, ptr %106, align 8
  %108 = call i32 (ptr, i32, ptr, ...) @__fprintf_chk(ptr noundef %96, i32 noundef 2, ptr noundef @.str.101, i32 noundef %97, ptr noundef %102, i32 noundef %107)
  br label %148

109:                                              ; preds = %3
  %110 = load i32, ptr @showPrecedenceConflict, align 4
  %111 = icmp ne i32 %110, 0
  br i1 %111, label %112, label %126

112:                                              ; preds = %109
  %113 = load ptr, ptr %5, align 8
  %114 = load i32, ptr %6, align 4
  %115 = load ptr, ptr %4, align 8
  %116 = getelementptr inbounds nuw %struct.action, ptr %115, i32 0, i32 0
  %117 = load ptr, ptr %116, align 8
  %118 = getelementptr inbounds nuw %struct.symbol, ptr %117, i32 0, i32 0
  %119 = load ptr, ptr %118, align 8
  %120 = load ptr, ptr %4, align 8
  %121 = getelementptr inbounds nuw %struct.action, ptr %120, i32 0, i32 2
  %122 = load ptr, ptr %121, align 8
  %123 = getelementptr inbounds nuw %struct.state, ptr %122, i32 0, i32 2
  %124 = load i32, ptr %123, align 8
  %125 = call i32 (ptr, i32, ptr, ...) @__fprintf_chk(ptr noundef %113, i32 noundef 2, ptr noundef @.str.102, i32 noundef %114, ptr noundef %119, i32 noundef %124)
  br label %127

126:                                              ; preds = %109
  store i32 0, ptr %7, align 4
  br label %127

127:                                              ; preds = %126, %112
  br label %148

128:                                              ; preds = %3
  %129 = load i32, ptr @showPrecedenceConflict, align 4
  %130 = icmp ne i32 %129, 0
  br i1 %130, label %131, label %145

131:                                              ; preds = %128
  %132 = load ptr, ptr %5, align 8
  %133 = load i32, ptr %6, align 4
  %134 = load ptr, ptr %4, align 8
  %135 = getelementptr inbounds nuw %struct.action, ptr %134, i32 0, i32 0
  %136 = load ptr, ptr %135, align 8
  %137 = getelementptr inbounds nuw %struct.symbol, ptr %136, i32 0, i32 0
  %138 = load ptr, ptr %137, align 8
  %139 = load ptr, ptr %4, align 8
  %140 = getelementptr inbounds nuw %struct.action, ptr %139, i32 0, i32 2
  %141 = load ptr, ptr %140, align 8
  %142 = getelementptr inbounds nuw %struct.rule, ptr %141, i32 0, i32 13
  %143 = load i32, ptr %142, align 4
  %144 = call i32 (ptr, i32, ptr, ...) @__fprintf_chk(ptr noundef %132, i32 noundef 2, ptr noundef @.str.103, i32 noundef %133, ptr noundef %138, i32 noundef %143)
  br label %146

145:                                              ; preds = %128
  store i32 0, ptr %7, align 4
  br label %146

146:                                              ; preds = %145, %131
  br label %148

147:                                              ; preds = %3
  store i32 0, ptr %7, align 4
  br label %148

148:                                              ; preds = %3, %147, %146, %127, %95, %81, %72, %63, %46, %29, %14
  %149 = load i32, ptr %7, align 4
  %150 = icmp ne i32 %149, 0
  br i1 %150, label %151, label %169

151:                                              ; preds = %148
  %152 = load ptr, ptr %4, align 8
  %153 = getelementptr inbounds nuw %struct.action, ptr %152, i32 0, i32 3
  %154 = load ptr, ptr %153, align 8
  %155 = icmp ne ptr %154, null
  br i1 %155, label %156, label %169

156:                                              ; preds = %151
  %157 = load ptr, ptr %5, align 8
  %158 = load ptr, ptr %4, align 8
  %159 = getelementptr inbounds nuw %struct.action, ptr %158, i32 0, i32 0
  %160 = load ptr, ptr %159, align 8
  %161 = getelementptr inbounds nuw %struct.symbol, ptr %160, i32 0, i32 0
  %162 = load ptr, ptr %161, align 8
  %163 = load ptr, ptr %4, align 8
  %164 = getelementptr inbounds nuw %struct.action, ptr %163, i32 0, i32 3
  %165 = load ptr, ptr %164, align 8
  %166 = getelementptr inbounds nuw %struct.symbol, ptr %165, i32 0, i32 0
  %167 = load ptr, ptr %166, align 8
  %168 = call i32 (ptr, i32, ptr, ...) @__fprintf_chk(ptr noundef %157, i32 noundef 2, ptr noundef @.str.104, ptr noundef %162, ptr noundef %167)
  br label %169

169:                                              ; preds = %156, %151, %148
  %170 = load i32, ptr %7, align 4
  call void @llvm.lifetime.end.p0(i64 4, ptr %7) #18
  ret i32 %170
}