; Function Attrs: null_pointer_is_valid sspstrong uwtable
define hidden range(i32 0, 2) i32 @PrintAction(ptr noundef readonly captures(none) %0, ptr noundef %1, i32 noundef %2) local_unnamed_addr #0 {
  %4 = getelementptr inbounds nuw i8, ptr %0, i64 8
  %5 = load i32, ptr %4, align 8
  switch i32 %5, label %74 [
    i32 0, label %6
    i32 2, label %14
    i32 10, label %22
    i32 1, label %30
    i32 3, label %34
    i32 5, label %38
    i32 6, label %38
    i32 4, label %46
    i32 7, label %54
    i32 8, label %64
    i32 9, label %82
  ]

6:                                                ; preds = %3
  %7 = getelementptr inbounds nuw i8, ptr %0, i64 16
  %8 = load ptr, ptr %7, align 8
  %9 = load ptr, ptr %0, align 8
  %10 = load ptr, ptr %9, align 8
  %11 = getelementptr inbounds nuw i8, ptr %8, i64 16
  %12 = load i32, ptr %11, align 8
  %13 = tail call i32 (ptr, i32, ptr, ...) @__fprintf_chk(ptr noundef %1, i32 noundef 2, ptr noundef nonnull @.str.95, i32 noundef %2, ptr noundef %10, i32 noundef %12)
  br label %74

14:                                               ; preds = %3
  %15 = getelementptr inbounds nuw i8, ptr %0, i64 16
  %16 = load ptr, ptr %15, align 8
  %17 = load ptr, ptr %0, align 8
  %18 = load ptr, ptr %17, align 8
  %19 = getelementptr inbounds nuw i8, ptr %16, i64 92
  %20 = load i32, ptr %19, align 4
  %21 = tail call i32 (ptr, i32, ptr, ...) @__fprintf_chk(ptr noundef %1, i32 noundef 2, ptr noundef nonnull @.str.96, i32 noundef %2, ptr noundef %18, i32 noundef %20)
  tail call void @RulePrint(ptr noundef %1, ptr noundef %16, i32 noundef -1)
  br label %74

22:                                               ; preds = %3
  %23 = getelementptr inbounds nuw i8, ptr %0, i64 16
  %24 = load ptr, ptr %23, align 8
  %25 = load ptr, ptr %0, align 8
  %26 = load ptr, ptr %25, align 8
  %27 = getelementptr inbounds nuw i8, ptr %24, i64 92
  %28 = load i32, ptr %27, align 4
  %29 = tail call i32 (ptr, i32, ptr, ...) @__fprintf_chk(ptr noundef %1, i32 noundef 2, ptr noundef nonnull @.str.97, i32 noundef %2, ptr noundef %26, i32 noundef %28)
  tail call void @RulePrint(ptr noundef %1, ptr noundef %24, i32 noundef -1)
  br label %74

30:                                               ; preds = %3
  %31 = load ptr, ptr %0, align 8
  %32 = load ptr, ptr %31, align 8
  %33 = tail call i32 (ptr, i32, ptr, ...) @__fprintf_chk(ptr noundef %1, i32 noundef 2, ptr noundef nonnull @.str.98, i32 noundef %2, ptr noundef %32)
  br label %74

34:                                               ; preds = %3
  %35 = load ptr, ptr %0, align 8
  %36 = load ptr, ptr %35, align 8
  %37 = tail call i32 (ptr, i32, ptr, ...) @__fprintf_chk(ptr noundef %1, i32 noundef 2, ptr noundef nonnull @.str.99, i32 noundef %2, ptr noundef %36)
  br label %74

38:                                               ; preds = %3, %3
  %39 = load ptr, ptr %0, align 8
  %40 = load ptr, ptr %39, align 8
  %41 = getelementptr inbounds nuw i8, ptr %0, i64 16
  %42 = load ptr, ptr %41, align 8
  %43 = getelementptr inbounds nuw i8, ptr %42, i64 92
  %44 = load i32, ptr %43, align 4
  %45 = tail call i32 (ptr, i32, ptr, ...) @__fprintf_chk(ptr noundef %1, i32 noundef 2, ptr noundef nonnull @.str.100, i32 noundef %2, ptr noundef %40, i32 noundef %44)
  br label %74

46:                                               ; preds = %3
  %47 = load ptr, ptr %0, align 8
  %48 = load ptr, ptr %47, align 8
  %49 = getelementptr inbounds nuw i8, ptr %0, i64 16
  %50 = load ptr, ptr %49, align 8
  %51 = getelementptr inbounds nuw i8, ptr %50, i64 16
  %52 = load i32, ptr %51, align 8
  %53 = tail call i32 (ptr, i32, ptr, ...) @__fprintf_chk(ptr noundef %1, i32 noundef 2, ptr noundef nonnull @.str.101, i32 noundef %2, ptr noundef %48, i32 noundef %52)
  br label %74

54:                                               ; preds = %3
  %55 = load i32, ptr @showPrecedenceConflict, align 4
  %.not48 = icmp eq i32 %55, 0
  br i1 %.not48, label %82, label %56

56:                                               ; preds = %54
  %57 = load ptr, ptr %0, align 8
  %58 = load ptr, ptr %57, align 8
  %59 = getelementptr inbounds nuw i8, ptr %0, i64 16
  %60 = load ptr, ptr %59, align 8
  %61 = getelementptr inbounds nuw i8, ptr %60, i64 16
  %62 = load i32, ptr %61, align 8
  %63 = tail call i32 (ptr, i32, ptr, ...) @__fprintf_chk(ptr noundef %1, i32 noundef 2, ptr noundef nonnull @.str.102, i32 noundef %2, ptr noundef %58, i32 noundef %62)
  br label %74

64:                                               ; preds = %3
  %65 = load i32, ptr @showPrecedenceConflict, align 4
  %.not = icmp eq i32 %65, 0
  br i1 %.not, label %82, label %66

66:                                               ; preds = %64
  %67 = load ptr, ptr %0, align 8
  %68 = load ptr, ptr %67, align 8
  %69 = getelementptr inbounds nuw i8, ptr %0, i64 16
  %70 = load ptr, ptr %69, align 8
  %71 = getelementptr inbounds nuw i8, ptr %70, i64 92
  %72 = load i32, ptr %71, align 4
  %73 = tail call i32 (ptr, i32, ptr, ...) @__fprintf_chk(ptr noundef %1, i32 noundef 2, ptr noundef nonnull @.str.103, i32 noundef %2, ptr noundef %68, i32 noundef %72)
  br label %74

74:                                               ; preds = %3, %66, %56, %46, %38, %34, %30, %22, %14, %6
  %75 = getelementptr inbounds nuw i8, ptr %0, i64 24
  %76 = load ptr, ptr %75, align 8
  %.not50 = icmp eq ptr %76, null
  br i1 %.not50, label %82, label %77

77:                                               ; preds = %74
  %78 = load ptr, ptr %0, align 8
  %79 = load ptr, ptr %78, align 8
  %80 = load ptr, ptr %76, align 8
  %81 = tail call i32 (ptr, i32, ptr, ...) @__fprintf_chk(ptr noundef %1, i32 noundef 2, ptr noundef nonnull @.str.104, ptr noundef %79, ptr noundef %80)
  br label %82

82:                                               ; preds = %3, %54, %64, %77, %74
  %.054 = phi i32 [ 1, %77 ], [ 1, %74 ], [ 0, %54 ], [ 0, %64 ], [ 0, %3 ]
  ret i32 %.054
}